firmware.elf:     file format elf32-littlearm


Disassembly of section .text:

08000000 <vector_table>:
 8000000:	20010000 	.word	0x20010000
 8000004:	08000209 	.word	0x08000209
 8000008:	08000321 	.word	0x08000321
 800000c:	08000321 	.word	0x08000321
 8000010:	08000321 	.word	0x08000321
 8000014:	08000321 	.word	0x08000321
 8000018:	08000321 	.word	0x08000321

08000208 <Reset_Handler>:
 8000208:	4812      	ldr	r0, [pc, #72]	; (8000254 <Reset_Handler+0x4c>)
 800020a:	4913      	ldr	r1, [pc, #76]	; (8000258 <Reset_Handler+0x50>)
 800020c:	4a13      	ldr	r2, [pc, #76]	; (800025c <Reset_Handler+0x54>)
 800020e:	2300      	movs	r3, #0
 8000210:	e002      	b.n	8000218 <Reset_Handler+0x10>
 8000212:	f850 4b04 	ldr.w	r4, [r0], #4
 8000216:	f841 4b04 	str.w	r4, [r1], #4
 800021a:	4291      	cmp	r1, r2
 800021c:	d3f9      	bcc.n	8000212 <Reset_Handler+0xa>
 800021e:	480e      	ldr	r0, [pc, #56]	; (8000258 <Reset_Handler+0x50>)
 8000220:	490f      	ldr	r1, [pc, #60]	; (8000260 <Reset_Handler+0x58>)
 8000222:	2200      	movs	r2, #0
 8000224:	e002      	b.n	800022c <Reset_Handler+0x24>
 8000226:	f840 2b04 	str.w	r2, [r0], #4
 800022a:	4288      	cmp	r0, r1
 800022c:	d3fb      	bcc.n	8000226 <Reset_Handler+0x1e>
 800022e:	f000 f8d1 	bl	80003d4 <SystemInit>
 8000232:	f000 f913 	bl	800045c <__libc_init_array>
 8000236:	f000 f9a5 	bl	8000584 <main>
 800023a:	f000 fa2f 	bl	800069c <exit>

0800023e <Default_Handler>:
 800023e:	e7fe      	b.n	800023e <Default_Handler>

08000240 <NMI_Handler>:
 8000240:	e7fe      	b.n	8000240 <NMI_Handler>

08000242 <HardFault_Handler>:
 8000242:	e7fe      	b.n	8000242 <HardFault_Handler>

08000254 <data_load_address>:
 8000254:	08003a00 	.word	0x08003a00

08000258 <data_start_address>:
 8000258:	20000000 	.word	0x20000000

0800025c <data_end_address>:
 800025c:	20000120 	.word	0x20000120

08000260 <bss_end_address>:
 8000260:	20001A40 	.word	0x20001A40

080003d4 <SystemInit>:
 80003d4:	b580      	push	{r7, lr}
 80003d6:	af00      	add	r7, sp, #0
 80003d8:	4b08      	ldr	r3, [pc, #32]	; (80003fc <SystemInit+0x28>)
 80003da:	681b      	ldr	r3, [r3, #0]
 80003dc:	4a08      	ldr	r2, [pc, #32]	; (8000400 <SystemInit+0x2c>)
 80003de:	f043 0301 	orr.w	r3, r3, #1
 80003e2:	6013      	str	r3, [r2, #0]
 80003e4:	4b05      	ldr	r3, [pc, #20]	; (80003fc <SystemInit+0x28>)
 80003e6:	681b      	ldr	r3, [r3, #0]
 80003e8:	f043 0302 	orr.w	r3, r3, #2
 80003ec:	4a04      	ldr	r2, [pc, #16]	; (8000400 <SystemInit+0x2c>)
 80003ee:	6013      	str	r3, [r2, #0]
 80003f0:	bf00      	nop
 80003f2:	bd80      	pop	{r7, pc}
 80003f4:	40023800 	.word	0x40023800
 80003f8:	40023c00 	.word	0x40023c00
 80003fc:	e000ed00 	.word	0xe000ed00
 8000400:	e000e008 	.word	0xe000e008

0800045c <__libc_init_array>:
 800045c:	b570      	push	{r4, r5, r6, lr}
 800045e:	4d0d      	ldr	r5, [pc, #52]	; (8000494 <__libc_init_array+0x38>)
 8000460:	4c0d      	ldr	r4, [pc, #52]	; (8000498 <__libc_init_array+0x3c>)
 8000462:	1b64      	subs	r4, r4, r5
 8000464:	10a4      	asrs	r4, r4, #2
 8000466:	2600      	movs	r6, #0
 8000468:	42a6      	cmp	r6, r4
 800046a:	d109      	bne.n	8000480 <__libc_init_array+0x24>
 800046c:	4d0b      	ldr	r5, [pc, #44]	; (800049c <__libc_init_array+0x40>)
 800046e:	4c0c      	ldr	r4, [pc, #48]	; (80004a0 <__libc_init_array+0x44>)
 8000470:	f000 f88c 	bl	800058c <_init>
 8000474:	1b64      	subs	r4, r4, r5
 8000476:	10a4      	asrs	r4, r4, #2
 8000478:	2600      	movs	r6, #0
 800047a:	42a6      	cmp	r6, r4
 800047c:	d105      	bne.n	800048a <__libc_init_array+0x2e>
 800047e:	bd70      	pop	{r4, r5, r6, pc}
 8000480:	f855 3b04 	ldr.w	r3, [r5], #4
 8000484:	4798      	blx	r3
 8000486:	3601      	adds	r6, #1
 8000488:	e7ee      	b.n	8000468 <__libc_init_array+0xc>
 800048a:	f855 3b04 	ldr.w	r3, [r5], #4
 800048e:	4798      	blx	r3
 8000490:	3601      	adds	r6, #1
 8000492:	e7f2      	b.n	800047a <__libc_init_array+0x1e>
 8000494:	08003a00 	.word	0x08003a00
 8000498:	08003a00 	.word	0x08003a00
 800049c:	08003a00 	.word	0x08003a00
 80004a0:	08003a04 	.word	0x08003a04

08000584 <main>:
 8000584:	b580      	push	{r7, lr}
 8000586:	b086      	sub	sp, #24
 8000588:	af00      	add	r7, sp, #0
 800058a:	f240 4320 	movw	r3, #1056	; 0x420
 800058e:	61fb      	str	r3, [r7, #28]
 8000590:	69fb      	ldr	r3, [r7, #28]
 8000592:	4618      	mov	r0, r3
 8000594:	f000 f87e 	bl	8000694 <malloc>
 8000598:	6138      	str	r0, [r7, #16]
 800059a:	693b      	ldr	r3, [r7, #16]
 800059c:	2b00      	cmp	r3, #0
 800059e:	d102      	bne.n	80005a6 <main+0x22>
 80005a0:	2301      	movs	r3, #1
 80005a2:	e016      	b.n	80005d2 <main+0x4e>
 80005a4:	bf00      	nop
 80005a6:	f44f 7300 	mov.w	r3, #512	; 0x200
 80005aa:	60fb      	str	r3, [r7, #12]
 80005ac:	68fb      	ldr	r3, [r7, #12]
 80005ae:	4618      	mov	r0, r3
 80005b0:	f000 f870 	bl	8000694 <malloc>
 80005b4:	6078      	str	r0, [r7, #4]
 80005b6:	687b      	ldr	r3, [r7, #4]
 80005b8:	2b00      	cmp	r3, #0
 80005ba:	d102      	bne.n	80005c2 <main+0x3e>
 80005bc:	2301      	movs	r3, #1
 80005be:	e008      	b.n	80005d2 <main+0x4e>
 80005c0:	bf00      	nop
 80005c2:	6938      	ldr	r0, [r7, #16]
 80005c4:	f000 f884 	bl	80006d0 <process_data>
 80005c8:	6878      	ldr	r0, [r7, #4]
 80005ca:	f000 f881 	bl	80006d0 <process_data>
 80005ce:	2300      	movs	r3, #0
 80005d0:	bf00      	nop
 80005d2:	4618      	mov	r0, r3
 80005d4:	3718      	adds	r7, #24
 80005d6:	46bd      	mov	sp, r7
 80005d8:	bd80      	pop	{r7, pc}

08000694 <malloc>:
 8000694:	b580      	push	{r7, lr}
 8000696:	b084      	sub	sp, #16
 8000698:	af00      	add	r7, sp, #0
 800069a:	6078      	str	r0, [r7, #4]
 800069c:	687b      	ldr	r3, [r7, #4]
 800069e:	4618      	mov	r0, r3
 80006a0:	f000 f826 	bl	80006f0 <_malloc_r>
 80006a4:	60f8      	str	r0, [r7, #12]
 80006a6:	68fb      	ldr	r3, [r7, #12]
 80006a8:	4618      	mov	r0, r3
 80006aa:	3710      	adds	r7, #16
 80006ac:	46bd      	mov	sp, r7
 80006ae:	bd80      	pop	{r7, pc}

080006d0 <process_data>:
 80006d0:	b580      	push	{r7, lr}
 80006d2:	b084      	sub	sp, #16
 80006d4:	af00      	add	r7, sp, #0
 80006d6:	6078      	str	r0, [r7, #4]
 80006d8:	2300      	movs	r3, #0
 80006da:	60fb      	str	r3, [r7, #12]
 80006dc:	e009      	b.n	80006f2 <process_data+0x22>
 80006de:	68fa      	ldr	r2, [r7, #12]
 80006e0:	687b      	ldr	r3, [r7, #4]
 80006e2:	4413      	add	r3, r2
 80006e4:	68fa      	ldr	r2, [r7, #12]
 80006e6:	b2d2      	uxtb	r2, r2
 80006e8:	701a      	strb	r2, [r3, #0]
 80006ea:	68fb      	ldr	r3, [r7, #12]
 80006ec:	3301      	adds	r3, #1
 80006ee:	60fb      	str	r3, [r7, #12]
 80006f0:	68fb      	ldr	r3, [r7, #12]
 80006f2:	f5b3 7f00 	cmp.w	r3, #512	; 0x200
 80006f6:	d3f2      	bcc.n	80006de <process_data+0xe>
 80006f8:	bf00      	nop
 80006fa:	bf00      	nop
 80006fc:	3710      	adds	r7, #16
 80006fe:	46bd      	mov	sp, r7
 8000700:	bd80      	pop	{r7, pc}

080006f0 <_malloc_r>:
 80006f0:	b580      	push	{r7, lr}
 80006f2:	b082      	sub	sp, #8
 80006f4:	af00      	add	r7, sp, #0
 80006f6:	6078      	str	r0, [r7, #4]
 80006f8:	6879      	ldr	r1, [r7, #4]
 80006fa:	4608      	mov	r0, r1
 80006fc:	f7ff fe9a 	bl	8000434 <_sbrk>
 8000700:	4603      	mov	r3, r0
 8000702:	4618      	mov	r0, r3
 8000704:	3708      	adds	r7, #8
 8000706:	46bd      	mov	sp, r7
 8000708:	bd80      	pop	{r7, pc}

08000434 <_sbrk>:
 8000434:	b580      	push	{r7, lr}
 8000436:	b084      	sub	sp, #16
 8000438:	af00      	add	r7, sp, #0
 800043a:	6078      	str	r0, [r7, #4]
 800043c:	4b14      	ldr	r3, [pc, #80]	; (8000490 <_sbrk+0x5c>)
 800043e:	681b      	ldr	r3, [r3, #0]
 8000440:	2b00      	cmp	r3, #0
 8000442:	d103      	bne.n	800044c <_sbrk+0x18>
 8000444:	4b13      	ldr	r3, [pc, #76]	; (8000494 <_sbrk+0x60>)
 8000446:	4a12      	ldr	r2, [pc, #72]	; (8000490 <_sbrk+0x5c>)
 8000448:	6013      	str	r3, [r2, #0]
 800044a:	e000      	b.n	800044e <_sbrk+0x1a>
 800044c:	bf00      	nop
 800044e:	4b10      	ldr	r3, [pc, #64]	; (8000490 <_sbrk+0x5c>)
 8000450:	681b      	ldr	r3, [r3, #0]
 8000452:	60fb      	str	r3, [r7, #12]
 8000454:	4b0e      	ldr	r3, [pc, #56]	; (8000490 <_sbrk+0x5c>)
 8000456:	681a      	ldr	r2, [r3, #0]
 8000458:	687b      	ldr	r3, [r7, #4]
 800045a:	4413      	add	r3, r2
 800045c:	4a0c      	ldr	r2, [pc, #48]	; (8000490 <_sbrk+0x5c>)
 800045e:	6013      	str	r3, [r2, #0]
 8000460:	4b0b      	ldr	r3, [pc, #44]	; (8000490 <_sbrk+0x5c>)
 8000462:	681a      	ldr	r2, [r3, #0]
 8000464:	4b0c      	ldr	r3, [pc, #48]	; (8000498 <_sbrk+0x64>)
 8000466:	429a      	cmp	r2, r3
 8000468:	dd06      	ble.n	8000478 <_sbrk+0x44>
 800046a:	f04f 33ff 	mov.w	r3, #4294967295	; 0xffffffff
 800046e:	60fb      	str	r3, [r7, #12]
 8000470:	68fb      	ldr	r3, [r7, #12]
 8000472:	e003      	b.n	800047c <_sbrk+0x48>
 8000474:	bf00      	nop
 8000476:	e7fb      	b.n	8000470 <_sbrk+0x3c>
 8000478:	68fb      	ldr	r3, [r7, #12]
 800047a:	bf00      	nop
 800047c:	4618      	mov	r0, r3
 800047e:	3710      	adds	r7, #16
 8000480:	46bd      	mov	sp, r7
 8000482:	bd80      	pop	{r7, pc}
 8000484:	00000000 	.word	0x00000000
 8000488:	00000000 	.word	0x00000000
 800048c:	00000000 	.word	0x00000000
 8000490:	20001a40 	.word	0x20001a40
 8000494:	20001a44 	.word	0x20001a44
 8000498:	2000e000 	.word	0x2000e000

0800069c <exit>:
 800069c:	b580      	push	{r7, lr}
 800069e:	b082      	sub	sp, #8
 80006a0:	af00      	add	r7, sp, #0
 80006a2:	6078      	str	r0, [r7, #4]
 80006a4:	6878      	ldr	r0, [r7, #4]
 80006a6:	f000 f815 	bl	80006d4 <_exit>

080006d4 <_exit>:
 80006d4:	b580      	push	{r7, lr}
 80006d6:	b082      	sub	sp, #8
 80006d8:	af00      	add	r7, sp, #0
 80006da:	6078      	str	r0, [r7, #4]
 80006dc:	e7fe      	b.n	80006dc <_exit+0x8>

Disassembly of section .data:

20000000 <system_clock>:
20000000:	00f42400 	.word	0x00f42400

20000004 <log_buffer>:
20000004:	00000000 	.word	0x00000000
20000008:	00000000 	.word	0x00000000
	...

20000100 <config_data>:
20000100:	deadbeef 	.word	0xdeadbeef
20000104:	cafebabe 	.word	0xcafebabe
	...

Disassembly of section .bss:

20000120 <temp_buffer>:
	...

20000520 <data_log>:
	...

Disassembly of section .comment:

00000000 <.comment>:
   0:	3a434347 	.word	0x3a434347
   4:	4e472820 	.word	0x4e472820
   8:	6f542055 	.word	0x6f542055
   c:	20736c6f 	.word	0x20736c6f

Disassembly of section .ARM.attributes:

00000000 <.ARM.attributes>:
   0:	00002e41 	.word	0x00002e41
   4:	61656100 	.word	0x61656100
   8:	01006962 	.word	0x01006962

Contents of section headers:

Sections:
Idx Name          Size      VMA       LMA       File off  Algn
  0 .text         00003a00  08000000  08000000  00010000  2**2
                  CONTENTS, ALLOC, LOAD, READONLY, CODE
  1 .rodata       00000100  08003a00  08003a00  00013a00  2**2
                  CONTENTS, ALLOC, LOAD, READONLY, DATA
  2 .data         00000120  20000000  08003b00  00020000  2**2
                  CONTENTS, ALLOC, LOAD, DATA
  3 .bss          00001920  20000120  08003c20  00020120  2**2
                  ALLOC
  4 .heap         00000004  20001a40  20001a40  00000000  2**2
                  ALLOC
  5 .comment      00000010  00000000  00000000  00030000  2**0
                  CONTENTS, READONLY
  6 .ARM.attributes 0000002e  00000000  00000000  00030010  2**0
                  CONTENTS, READONLY

SYMBOL TABLE:
08000000 l    d  .text	00000000 .text
20000000 l    d  .data	00000000 .data
20000120 l    d  .bss	00000000 .bss
08000208 g     F .text	0000004e Reset_Handler
08000584 g     F .text	00000056 main
08000434 g     F .text	0000005e _sbrk
08000694 g     F .text	0000001c malloc
080006d0 g     F .text	00000034 process_data
0800069c g     F .text	00000038 exit
080006d4 g     F .text	0000000a _exit
080003d4 g     F .text	00000030 SystemInit
0800045c g     F .text	00000048 __libc_init_array
080006f0 g     F .text	0000001a _malloc_r
20000000 g       .data	00000000 _sdata
20000120 g       .data	00000000 _edata
20000120 g       .bss	00000000 _sbss
20001a40 g       .bss	00000000 _ebss
20001a44 g       .heap	00000000 _heap_start
2000e000 g       .heap	00000000 _heap_end
20010000 g       *ABS*	00000000 _estack
08003a00 g       .rodata	00000000 _sidata
00000000 g       *ABS*	00000000 __data_start__
20000000 g       *ABS*	00000000 __bss_start__
20001a40 g       *ABS*	00000000 __bss_end__
20010000 g       *ABS*	00000000 __stack